target datalayout = "e-m:e-p270:32:32-p271:32:32-p272:64:64-i64:64-i128:128-f80:128-n8:16:32:64-S128"
target triple = "x86_64-pc-linux-gnu"

; Function Attrs: mustprogress nounwind uwtable
define internal noundef i32 @_ZL13getPrecedenceN5clang3tok9TokenKindE(i16 noundef zeroext %0) #0 {
  %2 = alloca i32, align 4
  %3 = alloca i16, align 2
  store i16 %0, ptr %3, align 2
  %4 = load i16, ptr %3, align 2
  %5 = zext i16 %4 to i32
  switch i32 %5, label %6 [
    i32 45, label %7
    i32 43, label %7
    i32 31, label %7
    i32 33, label %8
    i32 36, label %8
    i32 48, label %9
    i32 53, label %9
    i32 49, label %10
    i32 47, label %10
    i32 54, label %10
    i32 52, label %10
    i32 42, label %11
    i32 65, label %11
    i32 28, label %12
    i32 56, label %13
    i32 58, label %14
    i32 29, label %15
    i32 59, label %16
    i32 61, label %17
    i32 66, label %18
    i32 62, label %19
    i32 23, label %20
    i32 2, label %21
  ]

6:                                                ; preds = %1
  store i32 -1, ptr %2, align 4
  br label %22

7:                                                ; preds = %1, %1, %1
  store i32 14, ptr %2, align 4
  br label %22

8:                                                ; preds = %1, %1
  store i32 13, ptr %2, align 4
  br label %22

9:                                                ; preds = %1, %1
  store i32 12, ptr %2, align 4
  br label %22

10:                                               ; preds = %1, %1, %1, %1
  store i32 11, ptr %2, align 4
  br label %22

11:                                               ; preds = %1, %1
  store i32 10, ptr %2, align 4
  br label %22

12:                                               ; preds = %1
  store i32 9, ptr %2, align 4
  br label %22

13:                                               ; preds = %1
  store i32 8, ptr %2, align 4
  br label %22

14:                                               ; preds = %1
  store i32 7, ptr %2, align 4
  br label %22

15:                                               ; preds = %1
  store i32 6, ptr %2, align 4
  br label %22

16:                                               ; preds = %1
  store i32 5, ptr %2, align 4
  br label %22

17:                                               ; preds = %1
  store i32 4, ptr %2, align 4
  br label %22

18:                                               ; preds = %1
  store i32 3, ptr %2, align 4
  br label %22

19:                                               ; preds = %1
  store i32 2, ptr %2, align 4
  br label %22

20:                                               ; preds = %1
  store i32 0, ptr %2, align 4
  br label %22

21:                                               ; preds = %1
  store i32 0, ptr %2, align 4
  br label %22

22:                                               ; preds = %21, %20, %19, %18, %17, %16, %15, %14, %13, %12, %11, %10, %9, %8, %7, %6
  %23 = load i32, ptr %2, align 4
  ret i32 %23
}