; Function Attrs: mustprogress nofree norecurse nosync nounwind willreturn memory(none) uwtable
define internal fastcc noundef range(i32 -1, 15) i32 @_ZL13getPrecedenceN5clang3tok9TokenKindE(i16 noundef zeroext %0) unnamed_addr #3 {
  switch i16 %0, label %16 [
    i16 45, label %2
    i16 43, label %2
    i16 31, label %2
    i16 33, label %3
    i16 36, label %3
    i16 48, label %4
    i16 53, label %4
    i16 49, label %5
    i16 47, label %5
    i16 54, label %5
    i16 52, label %5
    i16 42, label %6
    i16 65, label %6
    i16 28, label %7
    i16 56, label %8
    i16 58, label %9
    i16 29, label %10
    i16 59, label %11
    i16 61, label %12
    i16 66, label %13
    i16 62, label %14
    i16 23, label %15
    i16 2, label %15
  ]

2:                                                ; preds = %1, %1, %1
  br label %16

3:                                                ; preds = %1, %1
  br label %16

4:                                                ; preds = %1, %1
  br label %16

5:                                                ; preds = %1, %1, %1, %1
  br label %16

6:                                                ; preds = %1, %1
  br label %16

7:                                                ; preds = %1
  br label %16

8:                                                ; preds = %1
  br label %16

9:                                                ; preds = %1
  br label %16

10:                                               ; preds = %1
  br label %16

11:                                               ; preds = %1
  br label %16

12:                                               ; preds = %1
  br label %16

13:                                               ; preds = %1
  br label %16

14:                                               ; preds = %1
  br label %16

15:                                               ; preds = %1, %1
  br label %16

16:                                               ; preds = %1, %15, %14, %13, %12, %11, %10, %9, %8, %7, %6, %5, %4, %3, %2
  %.0 = phi i32 [ 0, %15 ], [ 2, %14 ], [ 3, %13 ], [ 4, %12 ], [ 5, %11 ], [ 6, %10 ], [ 7, %9 ], [ 8, %8 ], [ 9, %7 ], [ 10, %6 ], [ 11, %5 ], [ 12, %4 ], [ 13, %3 ], [ 14, %2 ], [ -1, %1 ]
  ret i32 %.0
}